target datalayout = "e-m:e-p270:32:32-p271:32:32-p272:64:64-i64:64-i128:128-f80:128-n8:16:32:64-S128"
target triple = "x86_64-pc-linux-gnu"

%"class.boost::system_error" = type { i64, ptr }

; Function Attrs: mustprogress nounwind uwtable
define hidden void @_ZN5boost12system_errorC2EPKc(ptr noundef nonnull align 8 dereferenceable(16) %0, ptr noundef %1) unnamed_addr #5 align 2 {
  %3 = alloca ptr, align 8
  %4 = alloca ptr, align 8
  store ptr %0, ptr %3, align 8, !tbaa !3
  store ptr %1, ptr %4, align 8, !tbaa !3
  %5 = load ptr, ptr %3, align 8
  %6 = getelementptr inbounds nuw %"class.boost::system_error", ptr %5, i32 0, i32 0
  %7 = call ptr @__errno_location() #31
  %8 = load i32, ptr %7, align 4, !tbaa !21
  %9 = sext i32 %8 to i64
  store i64 %9, ptr %6, align 8, !tbaa !50
  %10 = getelementptr inbounds nuw %"class.boost::system_error", ptr %5, i32 0, i32 1
  %11 = load ptr, ptr %4, align 8, !tbaa !3
  store ptr %11, ptr %10, align 8, !tbaa !48
  ret void
}