; Function Attrs: mustprogress nofree nosync nounwind willreturn memory(read, argmem: readwrite, inaccessiblemem: none) uwtable
define hidden void @_ZN5boost12system_errorC2EPKc(ptr nocapture noundef nonnull writeonly align 8 dereferenceable(16) %0, ptr noundef %1) unnamed_addr #19 align 2 {
  %3 = tail call ptr @__errno_location() #43
  %4 = load i32, ptr %3, align 4, !tbaa !24
  %5 = sext i32 %4 to i64
  store i64 %5, ptr %0, align 8, !tbaa !25
  %6 = getelementptr inbounds nuw i8, ptr %0, i64 8
  store ptr %1, ptr %6, align 8, !tbaa !28
  ret void
}